; Function Attrs: mustprogress nofree norecurse nosync nounwind willreturn memory(read, argmem: readwrite, inaccessiblemem: none) uwtable
define internal void @_ZL10forward_3d6PJ_LPZP8PJconsts(ptr dead_on_unwind noalias writable writeonly sret(%struct.PJ_XYZ) align 8 captures(none) initializes((0, 24)) %0, ptr noundef readonly byval(%struct.PJ_LPZ) align 8 captures(none) %1, ptr noundef readonly captures(none) %2) #2 {
  %.sroa.0.0.copyload = load double, ptr %1, align 8, !tbaa !86
  %.sroa.7.0..sroa_idx = getelementptr inbounds nuw i8, ptr %1, i64 8
  %.sroa.7.0.copyload = load double, ptr %.sroa.7.0..sroa_idx, align 8, !tbaa !86
  %.sroa.9.0..sroa_idx = getelementptr inbounds nuw i8, ptr %1, i64 16
  %.sroa.9.0.copyload = load double, ptr %.sroa.9.0..sroa_idx, align 8, !tbaa !86
  %4 = getelementptr inbounds nuw i8, ptr %2, i64 88
  %5 = load ptr, ptr %4, align 8, !tbaa !50
  %6 = getelementptr inbounds nuw i8, ptr %5, i64 32
  %7 = load double, ptr %5, align 8, !tbaa !59
  %8 = load double, ptr %6, align 8, !tbaa !76
  %9 = tail call double @llvm.fmuladd.f64(double %8, double %.sroa.0.0.copyload, double %7)
  %10 = getelementptr inbounds nuw i8, ptr %5, i64 40
  %11 = load double, ptr %10, align 8, !tbaa !77
  %12 = tail call double @llvm.fmuladd.f64(double %11, double %.sroa.7.0.copyload, double %9)
  %13 = getelementptr inbounds nuw i8, ptr %5, i64 48
  %14 = load double, ptr %13, align 8, !tbaa !78
  %15 = tail call double @llvm.fmuladd.f64(double %14, double %.sroa.9.0.copyload, double %12)
  %16 = getelementptr inbounds nuw i8, ptr %5, i64 8
  %17 = load double, ptr %16, align 8, !tbaa !60
  %18 = getelementptr inbounds nuw i8, ptr %5, i64 56
  %19 = load double, ptr %18, align 8, !tbaa !79
  %20 = tail call double @llvm.fmuladd.f64(double %19, double %.sroa.0.0.copyload, double %17)
  %21 = getelementptr inbounds nuw i8, ptr %5, i64 64
  %22 = load double, ptr %21, align 8, !tbaa !80
  %23 = tail call double @llvm.fmuladd.f64(double %22, double %.sroa.7.0.copyload, double %20)
  %24 = getelementptr inbounds nuw i8, ptr %5, i64 72
  %25 = load double, ptr %24, align 8, !tbaa !81
  %26 = tail call double @llvm.fmuladd.f64(double %25, double %.sroa.9.0.copyload, double %23)
  %27 = getelementptr inbounds nuw i8, ptr %5, i64 16
  %28 = load double, ptr %27, align 8, !tbaa !61
  %29 = getelementptr inbounds nuw i8, ptr %5, i64 80
  %30 = load double, ptr %29, align 8, !tbaa !82
  %31 = tail call double @llvm.fmuladd.f64(double %30, double %.sroa.0.0.copyload, double %28)
  %32 = getelementptr inbounds nuw i8, ptr %5, i64 88
  %33 = load double, ptr %32, align 8, !tbaa !83
  %34 = tail call double @llvm.fmuladd.f64(double %33, double %.sroa.7.0.copyload, double %31)
  %35 = getelementptr inbounds nuw i8, ptr %5, i64 96
  %36 = load double, ptr %35, align 8, !tbaa !84
  %37 = tail call double @llvm.fmuladd.f64(double %36, double %.sroa.9.0.copyload, double %34)
  store double %15, ptr %0, align 8, !tbaa !86
  %.sroa.7.0..sroa_idx2 = getelementptr inbounds nuw i8, ptr %0, i64 8
  store double %26, ptr %.sroa.7.0..sroa_idx2, align 8, !tbaa !86
  %.sroa.9.0..sroa_idx4 = getelementptr inbounds nuw i8, ptr %0, i64 16
  store double %37, ptr %.sroa.9.0..sroa_idx4, align 8, !tbaa !86
  ret void
}